target datalayout = "e-m:e-p270:32:32-p271:32:32-p272:64:64-i64:64-i128:128-f80:128-n8:16:32:64-S128"
target triple = "x86_64-pc-linux-gnu"

%"class.gmx::NotImplementedError" = type { %"class.gmx::APIError" }
%"class.gmx::APIError" = type { %"class.gmx::GromacsException" }
%"class.gmx::GromacsException" = type { %"class.std::exception", %"class.std::shared_ptr" }
%"class.std::exception" = type { ptr }
%"class.std::shared_ptr" = type { %"class.std::__shared_ptr" }
%"class.std::__shared_ptr" = type { ptr, %"class.std::__shared_count" }
%"class.std::__shared_count" = type { ptr }
%"class.gmx::ExceptionInitializer" = type { %"class.std::__cxx11::basic_string", %"class.std::vector" }
%"class.std::__cxx11::basic_string" = type { %"struct.std::__cxx11::basic_string<char>::_Alloc_hider", i64, %union.anon }
%"struct.std::__cxx11::basic_string<char>::_Alloc_hider" = type { ptr }
%union.anon = type { i64, [8 x i8] }
%"class.std::vector" = type { %"struct.std::_Vector_base" }
%"struct.std::_Vector_base" = type { %"struct.std::_Vector_base<std::__exception_ptr::exception_ptr, std::allocator<std::__exception_ptr::exception_ptr>>::_Vector_impl" }
%"struct.std::_Vector_base<std::__exception_ptr::exception_ptr, std::allocator<std::__exception_ptr::exception_ptr>>::_Vector_impl" = type { %"struct.std::_Vector_base<std::__exception_ptr::exception_ptr, std::allocator<std::__exception_ptr::exception_ptr>>::_Vector_impl_data" }
%"struct.std::_Vector_base<std::__exception_ptr::exception_ptr, std::allocator<std::__exception_ptr::exception_ptr>>::_Vector_impl_data" = type { ptr, ptr, ptr }
%"class.gmx::ExceptionInfo" = type { %"class.gmx::internal::IExceptionInfo", %"struct.gmx::ThrowLocation" }
%"class.gmx::internal::IExceptionInfo" = type { ptr }
%"struct.gmx::ThrowLocation" = type <{ ptr, ptr, i32, [4 x i8] }>

@.str = private unnamed_addr constant [36 x i8] c"Unknown acceptance calculation mode\00", align 1
@__PRETTY_FUNCTION__._ZN3gmx25calculateAcceptanceWeightE23LambdaWeightCalculationf = private unnamed_addr constant [67 x i8] c"real gmx::calculateAcceptanceWeight(LambdaWeightCalculation, real)\00", align 1
@.str.1 = private unnamed_addr constant [133 x i8] c"generated/home/dtcxzyw/WorkSpace/Projects/compilers/llvm-opt-benchmark/bench/gromacs/gromacs/src/gromacs/mdlib/expanded_internal.cpp\00", align 1
@_ZTIN3gmx19NotImplementedErrorE = external constant ptr
@_ZTVN3gmx8internal14IExceptionInfoE = external unnamed_addr constant { [4 x ptr] }, align 8
@_ZTVN3gmx19NotImplementedErrorE = external unnamed_addr constant { [6 x ptr] }, align 8
@_ZTVN3gmx8APIErrorE = external unnamed_addr constant { [6 x ptr] }, align 8

; Function Attrs: mustprogress nounwind uwtable
define linkonce_odr void @_ZN3gmx8internal14IExceptionInfoC2Ev(ptr noundef nonnull align 8 dereferenceable(8) %0) unnamed_addr #1 comdat align 2 {
  %2 = alloca ptr, align 8
  store ptr %0, ptr %2, align 8
  %3 = load ptr, ptr %2, align 8
  store ptr getelementptr inbounds inrange(-16, 16) ({ [4 x ptr] }, ptr @_ZTVN3gmx8internal14IExceptionInfoE, i32 0, i32 0, i32 2), ptr %3, align 8
  ret void
}

; Function Attrs: mustprogress uwtable
define linkonce_odr void @_ZN3gmx8APIErrorC2ERKNS_20ExceptionInitializerE(ptr noundef nonnull align 8 dereferenceable(24) %0, ptr noundef nonnull align 8 dereferenceable(56) %1) unnamed_addr #0 comdat align 2 {
  %3 = alloca ptr, align 8
  %4 = alloca ptr, align 8
  store ptr %0, ptr %3, align 8
  store ptr %1, ptr %4, align 8
  %5 = load ptr, ptr %3, align 8
  %6 = load ptr, ptr %4, align 8
  call void @_ZN3gmx16GromacsExceptionC2ERKNS_20ExceptionInitializerE(ptr noundef nonnull align 8 dereferenceable(24) %5, ptr noundef nonnull align 8 dereferenceable(56) %6)
  store ptr getelementptr inbounds inrange(-16, 32) ({ [6 x ptr] }, ptr @_ZTVN3gmx8APIErrorE, i32 0, i32 0, i32 2), ptr %5, align 8
  ret void
}

; Function Attrs: mustprogress nounwind uwtable
define linkonce_odr void @_ZN3gmx13ExceptionInfoINS_22ExceptionInfoLocation_ENS_13ThrowLocationEED2Ev(ptr noundef nonnull align 8 dereferenceable(32) %0) unnamed_addr #1 comdat align 2 {
  %2 = alloca ptr, align 8
  store ptr %0, ptr %2, align 8
  %3 = load ptr, ptr %2, align 8
  call void @_ZN3gmx8internal14IExceptionInfoD2Ev(ptr noundef nonnull align 8 dereferenceable(8) %3) #9
  ret void
}

; Function Attrs: mustprogress nounwind uwtable
define linkonce_odr void @_ZN3gmx13ExceptionInfoINS_22ExceptionInfoLocation_ENS_13ThrowLocationEEC2ERKS2_(ptr noundef nonnull align 8 dereferenceable(32) %0, ptr noundef nonnull align 8 dereferenceable(20) %1) unnamed_addr #1 comdat align 2 {
  %3 = alloca ptr, align 8
  %4 = alloca ptr, align 8
  store ptr %0, ptr %3, align 8
  store ptr %1, ptr %4, align 8
  %5 = load ptr, ptr %3, align 8
  call void @_ZN3gmx8internal14IExceptionInfoC2Ev(ptr noundef nonnull align 8 dereferenceable(8) %5) #9
  store ptr getelementptr inbounds inrange(-16, 16) ({ [4 x ptr] }, ptr @_ZTVN3gmx13ExceptionInfoINS_22ExceptionInfoLocation_ENS_13ThrowLocationEEE, i32 0, i32 0, i32 2), ptr %5, align 8
  %6 = getelementptr inbounds %"class.gmx::ExceptionInfo", ptr %5, i32 0, i32 1
  %7 = load ptr, ptr %4, align 8
  call void @llvm.memcpy.p0.p0.i64(ptr align 8 %6, ptr align 8 %7, i64 24, i1 false)
  ret void
}

; Function Attrs: mustprogress nounwind uwtable
define linkonce_odr void @_ZN3gmx13ThrowLocationC2EPKcS2_i(ptr noundef nonnull align 8 dereferenceable(20) %0, ptr noundef %1, ptr noundef %2, i32 noundef %3) unnamed_addr #1 comdat align 2 {
  %5 = alloca ptr, align 8
  %6 = alloca ptr, align 8
  %7 = alloca ptr, align 8
  %8 = alloca i32, align 4
  store ptr %0, ptr %5, align 8
  store ptr %1, ptr %6, align 8
  store ptr %2, ptr %7, align 8
  store i32 %3, ptr %8, align 4
  %9 = load ptr, ptr %5, align 8
  %10 = getelementptr inbounds %"struct.gmx::ThrowLocation", ptr %9, i32 0, i32 0
  %11 = load ptr, ptr %6, align 8
  store ptr %11, ptr %10, align 8
  %12 = getelementptr inbounds %"struct.gmx::ThrowLocation", ptr %9, i32 0, i32 1
  %13 = load ptr, ptr %7, align 8
  store ptr %13, ptr %12, align 8
  %14 = getelementptr inbounds %"struct.gmx::ThrowLocation", ptr %9, i32 0, i32 2
  %15 = load i32, ptr %8, align 4
  store i32 %15, ptr %14, align 8
  ret void
}

; Function Attrs: mustprogress uwtable
define linkonce_odr void @_ZN3gmx19NotImplementedErrorC2ERKNS_20ExceptionInitializerE(ptr noundef nonnull align 8 dereferenceable(24) %0, ptr noundef nonnull align 8 dereferenceable(56) %1) unnamed_addr #0 comdat align 2 {
  %3 = alloca ptr, align 8
  %4 = alloca ptr, align 8
  store ptr %0, ptr %3, align 8
  store ptr %1, ptr %4, align 8
  %5 = load ptr, ptr %3, align 8
  %6 = load ptr, ptr %4, align 8
  call void @_ZN3gmx8APIErrorC2ERKNS_20ExceptionInitializerE(ptr noundef nonnull align 8 dereferenceable(24) %5, ptr noundef nonnull align 8 dereferenceable(56) %6)
  store ptr getelementptr inbounds inrange(-16, 32) ({ [6 x ptr] }, ptr @_ZTVN3gmx19NotImplementedErrorE, i32 0, i32 0, i32 2), ptr %5, align 8
  ret void
}

; Function Attrs: mustprogress nounwind uwtable
define linkonce_odr noundef float @_ZSt3expf(float noundef %0) #1 comdat {
  %2 = alloca float, align 4
  store float %0, ptr %2, align 4
  %3 = load float, ptr %2, align 4
  %4 = call float @expf(float noundef %3) #9
  ret float %4
}

; Function Attrs: mustprogress uwtable
define noundef float @_ZN3gmx25calculateAcceptanceWeightE23LambdaWeightCalculationf(i32 noundef %0, float noundef %1) #0 personality ptr @__gxx_personality_v0 {
  %3 = alloca float, align 4
  %4 = alloca i32, align 4
  %5 = alloca float, align 4
  %6 = alloca %"class.gmx::NotImplementedError", align 8
  %7 = alloca %"class.gmx::ExceptionInitializer", align 8
  %8 = alloca ptr, align 8
  %9 = alloca i32, align 4
  %10 = alloca %"class.gmx::ExceptionInfo", align 8
  %11 = alloca %"struct.gmx::ThrowLocation", align 8
  %12 = alloca i1, align 1
  store i32 %0, ptr %4, align 4
  store float %1, ptr %5, align 4
  %13 = load i32, ptr %4, align 4
  %14 = icmp eq i32 %13, 2
  br i1 %14, label %18, label %15

15:                                               ; preds = %2
  %16 = load i32, ptr %4, align 4
  %17 = icmp eq i32 %16, 3
  br i1 %17, label %18, label %40

18:                                               ; preds = %15, %2
  %19 = load float, ptr %5, align 4
  %20 = fcmp olt float %19, 0.000000e+00
  br i1 %20, label %21, label %28

21:                                               ; preds = %18
  %22 = load float, ptr %5, align 4
  %23 = call noundef float @_ZSt3expf(float noundef %22)
  %24 = fpext float %23 to double
  %25 = fadd double 1.000000e+00, %24
  %26 = fdiv double 1.000000e+00, %25
  %27 = fptrunc double %26 to float
  store float %27, ptr %3, align 4
  br label %81

28:                                               ; preds = %18
  %29 = load float, ptr %5, align 4
  %30 = fneg float %29
  %31 = call noundef float @_ZSt3expf(float noundef %30)
  %32 = fpext float %31 to double
  %33 = load float, ptr %5, align 4
  %34 = fneg float %33
  %35 = call noundef float @_ZSt3expf(float noundef %34)
  %36 = fpext float %35 to double
  %37 = fadd double 1.000000e+00, %36
  %38 = fdiv double %32, %37
  %39 = fptrunc double %38 to float
  store float %39, ptr %3, align 4
  br label %81

40:                                               ; preds = %15
  %41 = load i32, ptr %4, align 4
  %42 = icmp eq i32 %41, 1
  br i1 %42, label %43, label %51

43:                                               ; preds = %40
  %44 = load float, ptr %5, align 4
  %45 = fcmp olt float %44, 0.000000e+00
  br i1 %45, label %46, label %47

46:                                               ; preds = %43
  store float 1.000000e+00, ptr %3, align 4
  br label %81

47:                                               ; preds = %43
  %48 = load float, ptr %5, align 4
  %49 = fneg float %48
  %50 = call noundef float @_ZSt3expf(float noundef %49)
  store float %50, ptr %3, align 4
  br label %81

51:                                               ; preds = %40
  br label %52

52:                                               ; preds = %51
  store i1 true, ptr %12, align 1
  %53 = call ptr @__cxa_allocate_exception(i64 24) #9
  invoke void @_ZN3gmx20ExceptionInitializerC2EPKc(ptr noundef nonnull align 8 dereferenceable(56) %7, ptr noundef @.str)
          to label %54 unwind label %59

54:                                               ; preds = %52
  invoke void @_ZN3gmx19NotImplementedErrorC2ERKNS_20ExceptionInitializerE(ptr noundef nonnull align 8 dereferenceable(24) %6, ptr noundef nonnull align 8 dereferenceable(56) %7)
          to label %55 unwind label %63

55:                                               ; preds = %54
  invoke void @_ZN3gmx13ThrowLocationC2EPKcS2_i(ptr noundef nonnull align 8 dereferenceable(20) %11, ptr noundef @__PRETTY_FUNCTION__._ZN3gmx25calculateAcceptanceWeightE23LambdaWeightCalculationf, ptr noundef @.str.1, i32 noundef 99)
          to label %56 unwind label %67

56:                                               ; preds = %55
  invoke void @_ZN3gmx13ExceptionInfoINS_22ExceptionInfoLocation_ENS_13ThrowLocationEEC2ERKS2_(ptr noundef nonnull align 8 dereferenceable(32) %10, ptr noundef nonnull align 8 dereferenceable(20) %11)
          to label %57 unwind label %67

57:                                               ; preds = %56
  invoke void @_ZN3gmxlsINS_19NotImplementedErrorENS_22ExceptionInfoLocation_ENS_13ThrowLocationEEENSt9enable_ifIXsr3std10is_base_ofINS_16GromacsExceptionET_EE5valueES6_E4typeES6_RKNS_13ExceptionInfoIT0_T1_EE(ptr dead_on_unwind writable sret(%"class.gmx::NotImplementedError") align 8 %53, ptr noundef %6, ptr noundef nonnull align 8 dereferenceable(32) %10)
          to label %58 unwind label %71

58:                                               ; preds = %57
  store i1 false, ptr %12, align 1
  invoke void @__cxa_throw(ptr %53, ptr @_ZTIN3gmx19NotImplementedErrorE, ptr @_ZN3gmx19NotImplementedErrorD2Ev) #10
          to label %88 unwind label %71

59:                                               ; preds = %52
  %60 = landingpad { ptr, i32 }
          cleanup
  %61 = extractvalue { ptr, i32 } %60, 0
  store ptr %61, ptr %8, align 8
  %62 = extractvalue { ptr, i32 } %60, 1
  store i32 %62, ptr %9, align 4
  br label %77

63:                                               ; preds = %54
  %64 = landingpad { ptr, i32 }
          cleanup
  %65 = extractvalue { ptr, i32 } %64, 0
  store ptr %65, ptr %8, align 8
  %66 = extractvalue { ptr, i32 } %64, 1
  store i32 %66, ptr %9, align 4
  br label %76

67:                                               ; preds = %56, %55
  %68 = landingpad { ptr, i32 }
          cleanup
  %69 = extractvalue { ptr, i32 } %68, 0
  store ptr %69, ptr %8, align 8
  %70 = extractvalue { ptr, i32 } %68, 1
  store i32 %70, ptr %9, align 4
  br label %75

71:                                               ; preds = %58, %57
  %72 = landingpad { ptr, i32 }
          cleanup
  %73 = extractvalue { ptr, i32 } %72, 0
  store ptr %73, ptr %8, align 8
  %74 = extractvalue { ptr, i32 } %72, 1
  store i32 %74, ptr %9, align 4
  call void @_ZN3gmx13ExceptionInfoINS_22ExceptionInfoLocation_ENS_13ThrowLocationEED2Ev(ptr noundef nonnull align 8 dereferenceable(32) %10) #9
  br label %75

75:                                               ; preds = %71, %67
  call void @_ZN3gmx19NotImplementedErrorD2Ev(ptr noundef nonnull align 8 dereferenceable(24) %6) #9
  br label %76

76:                                               ; preds = %75, %63
  call void @_ZN3gmx20ExceptionInitializerD2Ev(ptr noundef nonnull align 8 dereferenceable(56) %7) #9
  br label %77

77:                                               ; preds = %76, %59
  %78 = load i1, ptr %12, align 1
  br i1 %78, label %79, label %80

79:                                               ; preds = %77
  call void @__cxa_free_exception(ptr %53) #9
  br label %80

80:                                               ; preds = %79, %77
  br label %83

81:                                               ; preds = %47, %46, %28, %21
  %82 = load float, ptr %3, align 4
  ret float %82

83:                                               ; preds = %80
  %84 = load ptr, ptr %8, align 8
  %85 = load i32, ptr %9, align 4
  %86 = insertvalue { ptr, i32 } poison, ptr %84, 0
  %87 = insertvalue { ptr, i32 } %86, i32 %85, 1
  resume { ptr, i32 } %87

88:                                               ; preds = %58
  unreachable
}