; Function Attrs: mustprogress uwtable
define noundef float @_ZN3gmx25calculateAcceptanceWeightE23LambdaWeightCalculationf(i32 noundef %0, float noundef %1) local_unnamed_addr #0 personality ptr @__gxx_personality_v0 {
  %3 = alloca %"class.gmx::NotImplementedError", align 8
  %4 = alloca %"class.gmx::ExceptionInitializer", align 8
  %5 = alloca %"class.gmx::ExceptionInfo", align 8
  %6 = and i32 %0, -2
  %or.cond = icmp eq i32 %6, 2
  br i1 %or.cond, label %7, label %24

7:                                                ; preds = %2
  %8 = fcmp olt float %1, 0.000000e+00
  br i1 %8, label %9, label %15

9:                                                ; preds = %7
  %10 = tail call noundef float @expf(float noundef %1) #13
  %11 = fpext float %10 to double
  %12 = fadd double %11, 1.000000e+00
  %13 = fdiv double 1.000000e+00, %12
  %14 = fptrunc double %13 to float
  br label %42

15:                                               ; preds = %7
  %16 = fneg float %1
  %17 = tail call noundef float @expf(float noundef %16) #13
  %18 = fpext float %17 to double
  %19 = tail call noundef float @expf(float noundef %16) #13
  %20 = fpext float %19 to double
  %21 = fadd double %20, 1.000000e+00
  %22 = fdiv double %18, %21
  %23 = fptrunc double %22 to float
  br label %42

24:                                               ; preds = %2
  %25 = icmp eq i32 %0, 1
  br i1 %25, label %26, label %31

26:                                               ; preds = %24
  %27 = fcmp olt float %1, 0.000000e+00
  br i1 %27, label %42, label %28

28:                                               ; preds = %26
  %29 = fneg float %1
  %30 = tail call noundef float @expf(float noundef %29) #13
  br label %42

31:                                               ; preds = %24
  %32 = tail call ptr @__cxa_allocate_exception(i64 24) #13
  invoke void @_ZN3gmx20ExceptionInitializerC2EPKc(ptr noundef nonnull align 8 dereferenceable(56) %4, ptr noundef nonnull @.str)
          to label %33 unwind label %.thread

33:                                               ; preds = %31
  invoke void @_ZN3gmx16GromacsExceptionC2ERKNS_20ExceptionInitializerE(ptr noundef nonnull align 8 dereferenceable(24) %3, ptr noundef nonnull align 8 dereferenceable(56) %4)
          to label %34 unwind label %.thread28

34:                                               ; preds = %33
  store ptr getelementptr inbounds inrange(-16, 32) ({ [6 x ptr] }, ptr @_ZTVN3gmx19NotImplementedErrorE, i64 0, i32 0, i64 2), ptr %3, align 8
  store ptr getelementptr inbounds inrange(-16, 16) ({ [4 x ptr] }, ptr @_ZTVN3gmx13ExceptionInfoINS_22ExceptionInfoLocation_ENS_13ThrowLocationEEE, i64 0, i32 0, i64 2), ptr %5, align 8
  %35 = getelementptr inbounds i8, ptr %5, i64 8
  store ptr @__PRETTY_FUNCTION__._ZN3gmx25calculateAcceptanceWeightE23LambdaWeightCalculationf, ptr %35, align 8
  %.sroa.2.0..sroa_idx = getelementptr inbounds i8, ptr %5, i64 16
  store ptr @.str.1, ptr %.sroa.2.0..sroa_idx, align 8
  %.sroa.3.0..sroa_idx = getelementptr inbounds i8, ptr %5, i64 24
  store i32 99, ptr %.sroa.3.0..sroa_idx, align 8
  invoke void @_ZN3gmxlsINS_19NotImplementedErrorENS_22ExceptionInfoLocation_ENS_13ThrowLocationEEENSt9enable_ifIXsr3std10is_base_ofINS_16GromacsExceptionET_EE5valueES6_E4typeES6_RKNS_13ExceptionInfoIT0_T1_EE(ptr dead_on_unwind writable sret(%"class.gmx::NotImplementedError") align 8 %32, ptr noundef nonnull %3, ptr noundef nonnull align 8 dereferenceable(32) %5)
          to label %36 unwind label %39

36:                                               ; preds = %34
  invoke void @__cxa_throw(ptr %32, ptr nonnull @_ZTIN3gmx19NotImplementedErrorE, ptr nonnull @_ZN3gmx19NotImplementedErrorD2Ev) #14
          to label %44 unwind label %39

.thread:                                          ; preds = %31
  %37 = landingpad { ptr, i32 }
          cleanup
  br label %41

.thread28:                                        ; preds = %33
  %38 = landingpad { ptr, i32 }
          cleanup
  call void @_ZN3gmx20ExceptionInitializerD2Ev(ptr noundef nonnull align 8 dereferenceable(56) %4) #13
  br label %41

39:                                               ; preds = %34, %36
  %.0 = phi i1 [ false, %36 ], [ true, %34 ]
  %40 = landingpad { ptr, i32 }
          cleanup
  call void @_ZN3gmx8internal14IExceptionInfoD2Ev(ptr noundef nonnull align 8 dereferenceable(8) %5) #13
  call void @_ZN3gmx19NotImplementedErrorD2Ev(ptr noundef nonnull align 8 dereferenceable(24) %3) #13
  call void @_ZN3gmx20ExceptionInitializerD2Ev(ptr noundef nonnull align 8 dereferenceable(56) %4) #13
  br i1 %.0, label %41, label %43

41:                                               ; preds = %.thread28, %.thread, %39
  %.pn.pn27 = phi { ptr, i32 } [ %37, %.thread ], [ %40, %39 ], [ %38, %.thread28 ]
  call void @__cxa_free_exception(ptr %32) #13
  br label %43

42:                                               ; preds = %26, %28, %15, %9
  %.017 = phi float [ %14, %9 ], [ %23, %15 ], [ %30, %28 ], [ 1.000000e+00, %26 ]
  ret float %.017

43:                                               ; preds = %39, %41
  %.pn.pn26 = phi { ptr, i32 } [ %40, %39 ], [ %.pn.pn27, %41 ]
  resume { ptr, i32 } %.pn.pn26

44:                                               ; preds = %36
  unreachable
}